target datalayout = "e-m:e-p270:32:32-p271:32:32-p272:64:64-i64:64-i128:128-f80:128-n8:16:32:64-S128"
target triple = "x86_64-pc-linux-gnu"

%struct.timespec = type { i64, i64 }

; Function Attrs: nounwind uwtable
define double @Extra_CpuTimeDouble() #0 {
  %1 = alloca double, align 8
  %2 = alloca %struct.timespec, align 8
  %3 = alloca double, align 8
  %4 = call i32 @clock_gettime(i32 noundef 1, ptr noundef %2) #7
  %5 = icmp slt i32 %4, 0
  br i1 %5, label %6, label %7

6:                                                ; preds = %0
  store double -1.000000e+00, ptr %1, align 8
  br label %18

7:                                                ; preds = %0
  %8 = getelementptr inbounds %struct.timespec, ptr %2, i32 0, i32 0
  %9 = load i64, ptr %8, align 8
  %10 = sitofp i64 %9 to double
  store double %10, ptr %3, align 8
  %11 = getelementptr inbounds %struct.timespec, ptr %2, i32 0, i32 1
  %12 = load i64, ptr %11, align 8
  %13 = sitofp i64 %12 to double
  %14 = fdiv double %13, 1.000000e+09
  %15 = load double, ptr %3, align 8
  %16 = fadd double %15, %14
  store double %16, ptr %3, align 8
  %17 = load double, ptr %3, align 8
  store double %17, ptr %1, align 8
  br label %18

18:                                               ; preds = %7, %6
  %19 = load double, ptr %1, align 8
  ret double %19
}