; Function Attrs: nounwind uwtable
define double @Extra_CpuTimeDouble() local_unnamed_addr #8 {
  %1 = alloca %struct.timespec, align 8
  %2 = call i32 @clock_gettime(i32 noundef 1, ptr noundef nonnull %1) #16
  %3 = icmp slt i32 %2, 0
  br i1 %3, label %12, label %4

4:                                                ; preds = %0
  %5 = load i64, ptr %1, align 8
  %6 = sitofp i64 %5 to double
  %7 = getelementptr inbounds nuw i8, ptr %1, i64 8
  %8 = load i64, ptr %7, align 8
  %9 = sitofp i64 %8 to double
  %10 = fdiv double %9, 1.000000e+09
  %11 = fadd double %10, %6
  br label %12

12:                                               ; preds = %0, %4
  %.0 = phi double [ %11, %4 ], [ -1.000000e+00, %0 ]
  ret double %.0
}